target datalayout = "e-m:e-p270:32:32-p271:32:32-p272:64:64-i64:64-i128:128-f80:128-n8:16:32:64-S128"
target triple = "x86_64-pc-linux-gnu"

@stderr = external global ptr, align 8
@.str = private unnamed_addr constant [30 x i8] c"Assertion failed: %s (%s:%d)\0A\00", align 1
@.str.2 = private unnamed_addr constant [110 x i8] c"generated/home/dtcxzyw/WorkSpace/Projects/compilers/llvm-opt-benchmark/bench/libzmq/libzmq/src/wss_engine.cpp\00", align 1
@.str.3 = private unnamed_addr constant [8 x i8] c"rc >= 0\00", align 1

; Function Attrs: mustprogress uwtable
define internal noundef i32 @_ZL27verify_certificate_callbackP18gnutls_session_int(ptr noundef %0) #0 {
  %2 = alloca i32, align 4
  %3 = alloca ptr, align 8
  %4 = alloca i32, align 4
  %5 = alloca ptr, align 8
  %6 = alloca i32, align 4
  %7 = alloca i32, align 4
  store ptr %0, ptr %3, align 8, !tbaa !93
  call void @llvm.lifetime.start.p0(i64 4, ptr %4) #11
  call void @llvm.lifetime.start.p0(i64 8, ptr %5) #11
  %8 = load ptr, ptr %3, align 8, !tbaa !93
  %9 = call ptr @gnutls_session_get_ptr(ptr noundef %8)
  store ptr %9, ptr %5, align 8, !tbaa !94
  call void @llvm.lifetime.start.p0(i64 4, ptr %6) #11
  %10 = load ptr, ptr %3, align 8, !tbaa !93
  %11 = load ptr, ptr %5, align 8, !tbaa !94
  %12 = call i32 @gnutls_certificate_verify_peers3(ptr noundef %10, ptr noundef %11, ptr noundef %4)
  store i32 %12, ptr %6, align 4, !tbaa !8
  br label %13

13:                                               ; preds = %1
  %14 = load i32, ptr %6, align 4, !tbaa !8
  %15 = icmp sge i32 %14, 0
  %16 = xor i1 %15, true
  %17 = zext i1 %16 to i64
  %18 = call i64 @llvm.expect.i64(i64 %17, i64 0)
  %19 = icmp ne i64 %18, 0
  br i1 %19, label %20, label %25

20:                                               ; preds = %13
  %21 = load ptr, ptr @stderr, align 8, !tbaa !85
  %22 = call i32 (ptr, ptr, ...) @fprintf(ptr noundef %21, ptr noundef @.str, ptr noundef @.str.3, ptr noundef @.str.2, i32 noundef 15) #11
  %23 = load ptr, ptr @stderr, align 8, !tbaa !85
  %24 = call i32 @fflush(ptr noundef %23)
  call void @_ZN3zmq9zmq_abortEPKc(ptr noundef @.str.3)
  br label %25

25:                                               ; preds = %20, %13
  br label %26

26:                                               ; preds = %25
  br label %27

27:                                               ; preds = %26
  %28 = load i32, ptr %4, align 4, !tbaa !8
  %29 = icmp ne i32 %28, 0
  br i1 %29, label %30, label %31

30:                                               ; preds = %27
  store i32 -43, ptr %2, align 4
  store i32 1, ptr %7, align 4
  br label %32

31:                                               ; preds = %27
  store i32 0, ptr %2, align 4
  store i32 1, ptr %7, align 4
  br label %32

32:                                               ; preds = %31, %30
  call void @llvm.lifetime.end.p0(i64 4, ptr %6) #11
  call void @llvm.lifetime.end.p0(i64 8, ptr %5) #11
  call void @llvm.lifetime.end.p0(i64 4, ptr %4) #11
  %33 = load i32, ptr %2, align 4
  ret i32 %33
}