; Function Attrs: mustprogress uwtable
define internal noundef range(i32 -43, 1) i32 @_ZL27verify_certificate_callbackP18gnutls_session_int(ptr noundef %0) #0 {
  %2 = alloca i32, align 4
  call void @llvm.lifetime.start.p0(i64 4, ptr nonnull %2) #13
  %3 = tail call ptr @gnutls_session_get_ptr(ptr noundef %0)
  %4 = call i32 @gnutls_certificate_verify_peers3(ptr noundef %0, ptr noundef %3, ptr noundef nonnull %2)
  %5 = icmp slt i32 %4, 0
  br i1 %5, label %6, label %11, !prof !81

6:                                                ; preds = %1
  %7 = load ptr, ptr @stderr, align 8, !tbaa !71
  %8 = call i32 (ptr, ptr, ...) @fprintf(ptr noundef %7, ptr noundef nonnull @.str, ptr noundef nonnull @.str.3, ptr noundef nonnull @.str.2, i32 noundef 15) #12
  %9 = load ptr, ptr @stderr, align 8, !tbaa !71
  %10 = call i32 @fflush(ptr noundef %9)
  call void @_ZN3zmq9zmq_abortEPKc(ptr noundef nonnull @.str.3)
  br label %11

11:                                               ; preds = %6, %1
  %12 = load i32, ptr %2, align 4, !tbaa !83
  %.not = icmp eq i32 %12, 0
  %. = select i1 %.not, i32 0, i32 -43
  call void @llvm.lifetime.end.p0(i64 4, ptr nonnull %2) #13
  ret i32 %.
}